target datalayout = "e-m:e-p270:32:32-p271:32:32-p272:64:64-i64:64-i128:128-f80:128-n8:16:32:64-S128"
target triple = "x86_64-pc-linux-gnu"

%struct._value_string_ext = type { ptr, i32, i32, ptr, ptr }
%struct.expert_field = type { i32, i32 }

@hf_hdr_name_value = internal global i32 0, align 4
@ei_wsp_oversized_uintvar = internal global %struct.expert_field zeroinitializer, align 4
@ett_header = internal global i32 0, align 4
@ei_wsp_header_invalid_value = internal global %struct.expert_field zeroinitializer, align 4
@hf_hdr_warning = internal global i32 0, align 4
@.str.349 = private unnamed_addr constant [8 x i8] c"Warning\00", align 1
@hf_hdr_warning_code = internal global i32 0, align 4
@vals_wsp_warning_code_ext = internal global %struct._value_string_ext { ptr @_try_val_to_str_ext_init, i32 0, i32 6, ptr @vals_wsp_warning_code, ptr @.str.1250 }, align 8
@hf_hdr_warning_agent = internal global i32 0, align 4
@hf_hdr_warning_text = internal global i32 0, align 4
@ett_warning = internal global i32 0, align 4
@vals_wsp_warning_code_short_ext = internal global %struct._value_string_ext { ptr @_try_val_to_str_ext_init, i32 0, i32 6, ptr @vals_wsp_warning_code_short, ptr @.str.1100 }, align 8
@.str.1097 = private unnamed_addr constant [8 x i8] c"code=%s\00", align 1
@.str.1098 = private unnamed_addr constant [11 x i8] c"; agent=%s\00", align 1
@.str.1099 = private unnamed_addr constant [10 x i8] c"; text=%s\00", align 1

; Function Attrs: null_pointer_is_valid sspstrong uwtable
define internal i32 @wkh_warning(ptr noundef %0, ptr noundef %1, i32 noundef %2, ptr noundef %3) #1 {
  %5 = alloca ptr, align 8
  %6 = alloca ptr, align 8
  %7 = alloca i32, align 4
  %8 = alloca ptr, align 8
  %9 = alloca i8, align 1
  %10 = alloca ptr, align 8
  %11 = alloca ptr, align 8
  %12 = alloca i32, align 4
  %13 = alloca i8, align 1
  %14 = alloca i32, align 4
  %15 = alloca i32, align 4
  %16 = alloca i32, align 4
  %17 = alloca ptr, align 8
  %18 = alloca i32, align 4
  %19 = alloca i32, align 4
  %20 = alloca i32, align 4
  %21 = alloca i8, align 1
  %22 = alloca ptr, align 8
  %23 = alloca ptr, align 8
  %24 = alloca ptr, align 8
  store ptr %0, ptr %5, align 8
  store ptr %1, ptr %6, align 8
  store i32 %2, ptr %7, align 4
  store ptr %3, ptr %8, align 8
  call void @llvm.lifetime.start.p0(i64 1, ptr %9) #8
  store i8 0, ptr %9, align 1
  call void @llvm.lifetime.start.p0(i64 8, ptr %10) #8
  call void @llvm.lifetime.start.p0(i64 8, ptr %11) #8
  call void @llvm.lifetime.start.p0(i64 4, ptr %12) #8
  %25 = load i32, ptr %7, align 4
  %26 = add i32 %25, 1
  store i32 %26, ptr %12, align 4
  call void @llvm.lifetime.start.p0(i64 1, ptr %13) #8
  %27 = load ptr, ptr %6, align 8
  %28 = load i32, ptr %12, align 4
  %29 = call zeroext i8 @tvb_get_uint8(ptr noundef %27, i32 noundef %28)
  store i8 %29, ptr %13, align 1
  call void @llvm.lifetime.start.p0(i64 4, ptr %14) #8
  %30 = load i32, ptr %12, align 4
  store i32 %30, ptr %14, align 4
  call void @llvm.lifetime.start.p0(i64 4, ptr %15) #8
  call void @llvm.lifetime.start.p0(i64 4, ptr %16) #8
  call void @llvm.lifetime.start.p0(i64 8, ptr %17) #8
  store ptr null, ptr %17, align 8
  call void @llvm.lifetime.start.p0(i64 4, ptr %18) #8
  call void @llvm.lifetime.start.p0(i64 4, ptr %19) #8
  call void @llvm.lifetime.start.p0(i64 4, ptr %20) #8
  call void @llvm.lifetime.start.p0(i64 1, ptr %21) #8
  call void @llvm.lifetime.start.p0(i64 8, ptr %22) #8
  call void @llvm.lifetime.start.p0(i64 8, ptr %23) #8
  store ptr null, ptr %23, align 8
  call void @llvm.lifetime.start.p0(i64 8, ptr %24) #8
  %31 = load ptr, ptr %5, align 8
  %32 = load ptr, ptr %6, align 8
  %33 = load i32, ptr %7, align 4
  %34 = load i32, ptr %14, align 4
  %35 = load i32, ptr %7, align 4
  %36 = sub i32 %34, %35
  %37 = load i32, ptr @ett_warning, align 4
  %38 = call ptr @proto_tree_add_subtree(ptr noundef %31, ptr noundef %32, i32 noundef %33, i32 noundef %36, i32 noundef %37, ptr noundef %11, ptr noundef @.str.349)
  store ptr %38, ptr %10, align 8
  %39 = load ptr, ptr %10, align 8
  %40 = load i32, ptr @hf_hdr_name_value, align 4
  %41 = load ptr, ptr %6, align 8
  %42 = load i32, ptr %7, align 4
  %43 = call ptr @proto_tree_add_item(ptr noundef %39, i32 noundef %40, ptr noundef %41, i32 noundef %42, i32 noundef 1, i32 noundef 0)
  %44 = load i8, ptr %13, align 1
  %45 = zext i8 %44 to i32
  %46 = and i32 %45, 128
  %47 = icmp ne i32 %46, 0
  br i1 %47, label %48, label %78

48:                                               ; preds = %4
  %49 = load i32, ptr %14, align 4
  %50 = add i32 %49, 1
  store i32 %50, ptr %14, align 4
  %51 = load i8, ptr %13, align 1
  %52 = zext i8 %51 to i32
  %53 = and i32 %52, 127
  store i32 %53, ptr %20, align 4
  %54 = load i32, ptr %20, align 4
  %55 = call ptr @try_val_to_str_ext(i32 noundef %54, ptr noundef @vals_wsp_warning_code_ext)
  store ptr %55, ptr %17, align 8
  %56 = load ptr, ptr %17, align 8
  %57 = icmp ne ptr %56, null
  br i1 %57, label %58, label %77

58:                                               ; preds = %48
  %59 = load ptr, ptr %5, align 8
  %60 = load i32, ptr @hf_hdr_warning, align 4
  %61 = load ptr, ptr %6, align 8
  %62 = load i32, ptr %7, align 4
  %63 = load i32, ptr %14, align 4
  %64 = load i32, ptr %7, align 4
  %65 = sub i32 %63, %64
  %66 = load ptr, ptr %17, align 8
  %67 = call ptr @proto_tree_add_string(ptr noundef %59, i32 noundef %60, ptr noundef %61, i32 noundef %62, i32 noundef %65, ptr noundef %66)
  store ptr %67, ptr %23, align 8
  %68 = load ptr, ptr %23, align 8
  %69 = load i32, ptr @ett_header, align 4
  %70 = call ptr @proto_item_add_subtree(ptr noundef %68, i32 noundef %69)
  store ptr %70, ptr %24, align 8
  %71 = load ptr, ptr %24, align 8
  %72 = load i32, ptr @hf_hdr_warning_code, align 4
  %73 = load ptr, ptr %6, align 8
  %74 = load i32, ptr %12, align 4
  %75 = load i32, ptr %20, align 4
  %76 = call ptr @proto_tree_add_uint(ptr noundef %71, i32 noundef %72, ptr noundef %73, i32 noundef %74, i32 noundef 1, i32 noundef %75)
  store i8 1, ptr %9, align 1
  br label %77

77:                                               ; preds = %58, %48
  br label %239

78:                                               ; preds = %4
  %79 = load i8, ptr %13, align 1
  %80 = zext i8 %79 to i32
  %81 = icmp eq i32 %80, 0
  br i1 %81, label %86, label %82

82:                                               ; preds = %78
  %83 = load i8, ptr %13, align 1
  %84 = zext i8 %83 to i32
  %85 = icmp sge i32 %84, 32
  br i1 %85, label %86, label %94

86:                                               ; preds = %82, %78
  %87 = call ptr @wmem_packet_scope()
  %88 = load ptr, ptr %6, align 8
  %89 = load i32, ptr %12, align 4
  %90 = call ptr @tvb_get_stringz_enc(ptr noundef %87, ptr noundef %88, i32 noundef %89, ptr noundef %15, i32 noundef 0)
  %91 = load i32, ptr %12, align 4
  %92 = load i32, ptr %15, align 4
  %93 = add i32 %91, %92
  store i32 %93, ptr %14, align 4
  br label %238

94:                                               ; preds = %82
  %95 = load i8, ptr %13, align 1
  %96 = zext i8 %95 to i32
  %97 = icmp eq i32 %96, 31
  br i1 %97, label %98, label %106

98:                                               ; preds = %94
  %99 = load ptr, ptr %6, align 8
  %100 = load i32, ptr %12, align 4
  %101 = add i32 %100, 1
  %102 = load ptr, ptr %8, align 8
  %103 = call i32 @tvb_get_uintvar(ptr noundef %99, i32 noundef %101, ptr noundef %16, ptr noundef %102, ptr noundef @ei_wsp_oversized_uintvar)
  store i32 %103, ptr %15, align 4
  %104 = load i32, ptr %16, align 4
  %105 = add i32 %104, 1
  store i32 %105, ptr %16, align 4
  br label %111

106:                                              ; preds = %94
  %107 = load ptr, ptr %6, align 8
  %108 = load i32, ptr %14, align 4
  %109 = call zeroext i8 @tvb_get_uint8(ptr noundef %107, i32 noundef %108)
  %110 = zext i8 %109 to i32
  store i32 %110, ptr %15, align 4
  store i32 1, ptr %16, align 4
  br label %111

111:                                              ; preds = %106, %98
  %112 = load i32, ptr %16, align 4
  %113 = load i32, ptr %15, align 4
  %114 = add i32 %112, %113
  %115 = load i32, ptr %14, align 4
  %116 = add i32 %115, %114
  store i32 %116, ptr %14, align 4
  %117 = load i32, ptr %12, align 4
  %118 = load i32, ptr %16, align 4
  %119 = add i32 %117, %118
  store i32 %119, ptr %18, align 4
  %120 = load ptr, ptr %6, align 8
  %121 = load i32, ptr %18, align 4
  %122 = call zeroext i8 @tvb_get_uint8(ptr noundef %120, i32 noundef %121)
  store i8 %122, ptr %21, align 1
  %123 = load i8, ptr %21, align 1
  %124 = zext i8 %123 to i32
  %125 = and i32 %124, 128
  %126 = icmp ne i32 %125, 0
  br i1 %126, label %127, label %237

127:                                              ; preds = %111
  %128 = load i8, ptr %21, align 1
  %129 = zext i8 %128 to i32
  %130 = and i32 %129, 127
  store i32 %130, ptr %20, align 4
  %131 = load i32, ptr %20, align 4
  %132 = call ptr @try_val_to_str_ext(i32 noundef %131, ptr noundef @vals_wsp_warning_code_short_ext)
  store ptr %132, ptr %17, align 8
  %133 = load ptr, ptr %17, align 8
  %134 = icmp ne ptr %133, null
  br i1 %134, label %135, label %236

135:                                              ; preds = %127
  %136 = call ptr @wmem_packet_scope()
  %137 = load ptr, ptr %17, align 8
  %138 = call noalias ptr (ptr, ptr, ...) @wmem_strdup_printf(ptr noundef %136, ptr noundef @.str.1097, ptr noundef %137)
  store ptr %138, ptr %22, align 8
  %139 = load ptr, ptr %5, align 8
  %140 = load i32, ptr @hf_hdr_warning, align 4
  %141 = load ptr, ptr %6, align 8
  %142 = load i32, ptr %7, align 4
  %143 = load i32, ptr %14, align 4
  %144 = load i32, ptr %7, align 4
  %145 = sub i32 %143, %144
  %146 = load ptr, ptr %22, align 8
  %147 = call ptr @proto_tree_add_string(ptr noundef %139, i32 noundef %140, ptr noundef %141, i32 noundef %142, i32 noundef %145, ptr noundef %146)
  store ptr %147, ptr %23, align 8
  %148 = load ptr, ptr %23, align 8
  %149 = load i32, ptr @ett_header, align 4
  %150 = call ptr @proto_item_add_subtree(ptr noundef %148, i32 noundef %149)
  store ptr %150, ptr %24, align 8
  %151 = load ptr, ptr %24, align 8
  %152 = load i32, ptr @hf_hdr_warning_code, align 4
  %153 = load ptr, ptr %6, align 8
  %154 = load i32, ptr %18, align 4
  %155 = load i32, ptr %20, align 4
  %156 = call ptr @proto_tree_add_uint(ptr noundef %151, i32 noundef %152, ptr noundef %153, i32 noundef %154, i32 noundef 1, i32 noundef %155)
  %157 = load i32, ptr %18, align 4
  %158 = add i32 %157, 1
  store i32 %158, ptr %18, align 4
  %159 = load ptr, ptr %6, align 8
  %160 = load i32, ptr %18, align 4
  %161 = call zeroext i8 @tvb_get_uint8(ptr noundef %159, i32 noundef %160)
  %162 = zext i8 %161 to i32
  %163 = icmp eq i32 %162, 0
  br i1 %163, label %176, label %164

164:                                              ; preds = %135
  %165 = load ptr, ptr %6, align 8
  %166 = load i32, ptr %18, align 4
  %167 = call zeroext i8 @tvb_get_uint8(ptr noundef %165, i32 noundef %166)
  %168 = zext i8 %167 to i32
  %169 = icmp sge i32 %168, 32
  br i1 %169, label %170, label %181

170:                                              ; preds = %164
  %171 = load ptr, ptr %6, align 8
  %172 = load i32, ptr %18, align 4
  %173 = call zeroext i8 @tvb_get_uint8(ptr noundef %171, i32 noundef %172)
  %174 = zext i8 %173 to i32
  %175 = icmp sle i32 %174, 127
  br i1 %175, label %176, label %181

176:                                              ; preds = %170, %135
  %177 = call ptr @wmem_packet_scope()
  %178 = load ptr, ptr %6, align 8
  %179 = load i32, ptr %18, align 4
  %180 = call ptr @tvb_get_stringz_enc(ptr noundef %177, ptr noundef %178, i32 noundef %179, ptr noundef %19, i32 noundef 0)
  store ptr %180, ptr %22, align 8
  store i8 1, ptr %9, align 1
  br label %182

181:                                              ; preds = %170, %164
  store i32 0, ptr %19, align 4
  store ptr null, ptr %22, align 8
  store i8 0, ptr %9, align 1
  br label %182

182:                                              ; preds = %181, %176
  %183 = load i8, ptr %9, align 1, !range !6, !noundef !7
  %184 = trunc i8 %183 to i1
  br i1 %184, label %185, label %235

185:                                              ; preds = %182
  %186 = load ptr, ptr %24, align 8
  %187 = load i32, ptr @hf_hdr_warning_agent, align 4
  %188 = load ptr, ptr %6, align 8
  %189 = load i32, ptr %18, align 4
  %190 = load i32, ptr %19, align 4
  %191 = load ptr, ptr %22, align 8
  %192 = call ptr @proto_tree_add_string(ptr noundef %186, i32 noundef %187, ptr noundef %188, i32 noundef %189, i32 noundef %190, ptr noundef %191)
  %193 = load ptr, ptr %23, align 8
  %194 = load ptr, ptr %22, align 8
  call void (ptr, ptr, ...) @proto_item_append_text(ptr noundef %193, ptr noundef @.str.1098, ptr noundef %194)
  %195 = load i32, ptr %19, align 4
  %196 = load i32, ptr %18, align 4
  %197 = add i32 %196, %195
  store i32 %197, ptr %18, align 4
  %198 = load ptr, ptr %6, align 8
  %199 = load i32, ptr %18, align 4
  %200 = call zeroext i8 @tvb_get_uint8(ptr noundef %198, i32 noundef %199)
  %201 = zext i8 %200 to i32
  %202 = icmp eq i32 %201, 0
  br i1 %202, label %215, label %203

203:                                              ; preds = %185
  %204 = load ptr, ptr %6, align 8
  %205 = load i32, ptr %18, align 4
  %206 = call zeroext i8 @tvb_get_uint8(ptr noundef %204, i32 noundef %205)
  %207 = zext i8 %206 to i32
  %208 = icmp sge i32 %207, 32
  br i1 %208, label %209, label %220

209:                                              ; preds = %203
  %210 = load ptr, ptr %6, align 8
  %211 = load i32, ptr %18, align 4
  %212 = call zeroext i8 @tvb_get_uint8(ptr noundef %210, i32 noundef %211)
  %213 = zext i8 %212 to i32
  %214 = icmp sle i32 %213, 127
  br i1 %214, label %215, label %220

215:                                              ; preds = %209, %185
  %216 = call ptr @wmem_packet_scope()
  %217 = load ptr, ptr %6, align 8
  %218 = load i32, ptr %18, align 4
  %219 = call ptr @tvb_get_stringz_enc(ptr noundef %216, ptr noundef %217, i32 noundef %218, ptr noundef %19, i32 noundef 0)
  store ptr %219, ptr %22, align 8
  store i8 1, ptr %9, align 1
  br label %221

220:                                              ; preds = %209, %203
  store i32 0, ptr %19, align 4
  store ptr null, ptr %22, align 8
  store i8 0, ptr %9, align 1
  br label %221

221:                                              ; preds = %220, %215
  %222 = load i8, ptr %9, align 1, !range !6, !noundef !7
  %223 = trunc i8 %222 to i1
  br i1 %223, label %224, label %234

224:                                              ; preds = %221
  %225 = load ptr, ptr %24, align 8
  %226 = load i32, ptr @hf_hdr_warning_text, align 4
  %227 = load ptr, ptr %6, align 8
  %228 = load i32, ptr %18, align 4
  %229 = load i32, ptr %19, align 4
  %230 = load ptr, ptr %22, align 8
  %231 = call ptr @proto_tree_add_string(ptr noundef %225, i32 noundef %226, ptr noundef %227, i32 noundef %228, i32 noundef %229, ptr noundef %230)
  %232 = load ptr, ptr %23, align 8
  %233 = load ptr, ptr %22, align 8
  call void (ptr, ptr, ...) @proto_item_append_text(ptr noundef %232, ptr noundef @.str.1099, ptr noundef %233)
  br label %234

234:                                              ; preds = %224, %221
  br label %235

235:                                              ; preds = %234, %182
  br label %236

236:                                              ; preds = %235, %127
  br label %237

237:                                              ; preds = %236, %111
  br label %238

238:                                              ; preds = %237, %86
  br label %239

239:                                              ; preds = %238, %77
  %240 = load i8, ptr %9, align 1, !range !6, !noundef !7
  %241 = trunc i8 %240 to i1
  br i1 %241, label %246, label %242

242:                                              ; preds = %239
  %243 = load ptr, ptr %8, align 8
  %244 = load ptr, ptr %11, align 8
  %245 = call ptr @expert_add_info(ptr noundef %243, ptr noundef %244, ptr noundef @ei_wsp_header_invalid_value)
  br label %246

246:                                              ; preds = %242, %239
  %247 = load i32, ptr %14, align 4
  call void @llvm.lifetime.end.p0(i64 8, ptr %24) #8
  call void @llvm.lifetime.end.p0(i64 8, ptr %23) #8
  call void @llvm.lifetime.end.p0(i64 8, ptr %22) #8
  call void @llvm.lifetime.end.p0(i64 1, ptr %21) #8
  call void @llvm.lifetime.end.p0(i64 4, ptr %20) #8
  call void @llvm.lifetime.end.p0(i64 4, ptr %19) #8
  call void @llvm.lifetime.end.p0(i64 4, ptr %18) #8
  call void @llvm.lifetime.end.p0(i64 8, ptr %17) #8
  call void @llvm.lifetime.end.p0(i64 4, ptr %16) #8
  call void @llvm.lifetime.end.p0(i64 4, ptr %15) #8
  call void @llvm.lifetime.end.p0(i64 4, ptr %14) #8
  call void @llvm.lifetime.end.p0(i64 1, ptr %13) #8
  call void @llvm.lifetime.end.p0(i64 4, ptr %12) #8
  call void @llvm.lifetime.end.p0(i64 8, ptr %11) #8
  call void @llvm.lifetime.end.p0(i64 8, ptr %10) #8
  call void @llvm.lifetime.end.p0(i64 1, ptr %9) #8
  ret i32 %247
}