; Function Attrs: null_pointer_is_valid sspstrong uwtable
define internal i32 @wkh_warning(ptr noundef %0, ptr noundef %1, i32 noundef %2, ptr noundef %3) #1 {
  %5 = alloca ptr, align 8
  %6 = alloca i32, align 4
  %7 = alloca i32, align 4
  %8 = alloca i32, align 4
  call void @llvm.lifetime.start.p0(i64 8, ptr nonnull %5) #5
  %9 = add i32 %2, 1
  %10 = tail call zeroext i8 @tvb_get_uint8(ptr noundef %1, i32 noundef %9)
  call void @llvm.lifetime.start.p0(i64 4, ptr nonnull %6) #5
  call void @llvm.lifetime.start.p0(i64 4, ptr nonnull %7) #5
  call void @llvm.lifetime.start.p0(i64 4, ptr nonnull %8) #5
  %11 = load i32, ptr @ett_warning, align 4
  %12 = call ptr @proto_tree_add_subtree(ptr noundef %0, ptr noundef %1, i32 noundef %2, i32 noundef 1, i32 noundef %11, ptr noundef nonnull %5, ptr noundef nonnull @.str.349)
  %13 = load i32, ptr @hf_hdr_name_value, align 4
  %14 = call ptr @proto_tree_add_item(ptr noundef %12, i32 noundef %13, ptr noundef %1, i32 noundef %2, i32 noundef 1, i32 noundef 0)
  %.not = icmp sgt i8 %10, -1
  br i1 %.not, label %27, label %15

15:                                               ; preds = %4
  %16 = add i32 %2, 2
  %17 = and i8 %10, 127
  %18 = zext nneg i8 %17 to i32
  %19 = call ptr @try_val_to_str_ext(i32 noundef %18, ptr noundef nonnull @vals_wsp_warning_code_ext)
  %.not103 = icmp eq ptr %19, null
  br i1 %.not103, label %95, label %20

20:                                               ; preds = %15
  %21 = load i32, ptr @hf_hdr_warning, align 4
  %22 = call ptr @proto_tree_add_string(ptr noundef %0, i32 noundef %21, ptr noundef %1, i32 noundef %2, i32 noundef 2, ptr noundef nonnull %19)
  %23 = load i32, ptr @ett_header, align 4
  %24 = call ptr @proto_item_add_subtree(ptr noundef %22, i32 noundef %23)
  %25 = load i32, ptr @hf_hdr_warning_code, align 4
  %26 = call ptr @proto_tree_add_uint(ptr noundef %24, i32 noundef %25, ptr noundef %1, i32 noundef %9, i32 noundef 1, i32 noundef %18)
  br label %98

27:                                               ; preds = %4
  %28 = add nsw i8 %10, -32
  %or.cond = icmp ult i8 %28, -31
  br i1 %or.cond, label %29, label %34

29:                                               ; preds = %27
  %30 = call ptr @wmem_packet_scope()
  %31 = call ptr @tvb_get_stringz_enc(ptr noundef %30, ptr noundef %1, i32 noundef %9, ptr noundef nonnull %6, i32 noundef 0)
  %32 = load i32, ptr %6, align 4
  %33 = add i32 %32, %9
  br label %95

34:                                               ; preds = %27
  %35 = icmp eq i8 %10, 31
  br i1 %35, label %36, label %41

36:                                               ; preds = %34
  %37 = add i32 %2, 2
  %38 = call i32 @tvb_get_uintvar(ptr noundef %1, i32 noundef %37, ptr noundef nonnull %7, ptr noundef %3, ptr noundef nonnull @ei_wsp_oversized_uintvar)
  %39 = load i32, ptr %7, align 4
  %40 = add i32 %39, 1
  br label %44

41:                                               ; preds = %34
  %42 = call zeroext i8 @tvb_get_uint8(ptr noundef %1, i32 noundef %9)
  %43 = zext i8 %42 to i32
  br label %44

44:                                               ; preds = %41, %36
  %.sink = phi i32 [ %38, %36 ], [ %43, %41 ]
  %storemerge = phi i32 [ %40, %36 ], [ 1, %41 ]
  store i32 %.sink, ptr %6, align 4
  store i32 %storemerge, ptr %7, align 4
  %45 = add i32 %storemerge, %9
  %46 = add i32 %45, %.sink
  %47 = call zeroext i8 @tvb_get_uint8(ptr noundef %1, i32 noundef %45)
  %.not101 = icmp sgt i8 %47, -1
  br i1 %.not101, label %95, label %48

48:                                               ; preds = %44
  %49 = and i8 %47, 127
  %50 = zext nneg i8 %49 to i32
  %51 = call ptr @try_val_to_str_ext(i32 noundef %50, ptr noundef nonnull @vals_wsp_warning_code_short_ext)
  %.not102 = icmp eq ptr %51, null
  br i1 %.not102, label %95, label %52

52:                                               ; preds = %48
  %53 = call ptr @wmem_packet_scope()
  %54 = call noalias ptr (ptr, ptr, ...) @wmem_strdup_printf(ptr noundef %53, ptr noundef nonnull @.str.1097, ptr noundef nonnull %51)
  %55 = load i32, ptr @hf_hdr_warning, align 4
  %56 = sub i32 %46, %2
  %57 = call ptr @proto_tree_add_string(ptr noundef %0, i32 noundef %55, ptr noundef %1, i32 noundef %2, i32 noundef %56, ptr noundef %54)
  %58 = load i32, ptr @ett_header, align 4
  %59 = call ptr @proto_item_add_subtree(ptr noundef %57, i32 noundef %58)
  %60 = load i32, ptr @hf_hdr_warning_code, align 4
  %61 = call ptr @proto_tree_add_uint(ptr noundef %59, i32 noundef %60, ptr noundef %1, i32 noundef %45, i32 noundef 1, i32 noundef %50)
  %62 = add i32 %45, 1
  %63 = call zeroext i8 @tvb_get_uint8(ptr noundef %1, i32 noundef %62)
  %64 = icmp eq i8 %63, 0
  br i1 %64, label %72, label %65

65:                                               ; preds = %52
  %66 = call zeroext i8 @tvb_get_uint8(ptr noundef %1, i32 noundef %62)
  %67 = icmp ugt i8 %66, 31
  br i1 %67, label %68, label %71

68:                                               ; preds = %65
  %69 = call zeroext i8 @tvb_get_uint8(ptr noundef %1, i32 noundef %62)
  %70 = icmp sgt i8 %69, -1
  br i1 %70, label %72, label %71

71:                                               ; preds = %65, %68
  store i32 0, ptr %8, align 4
  br label %95

72:                                               ; preds = %52, %68
  %73 = call ptr @wmem_packet_scope()
  %74 = call ptr @tvb_get_stringz_enc(ptr noundef %73, ptr noundef %1, i32 noundef %62, ptr noundef nonnull %8, i32 noundef 0)
  %75 = load i32, ptr @hf_hdr_warning_agent, align 4
  %76 = load i32, ptr %8, align 4
  %77 = call ptr @proto_tree_add_string(ptr noundef %59, i32 noundef %75, ptr noundef %1, i32 noundef %62, i32 noundef %76, ptr noundef %74)
  call void (ptr, ptr, ...) @proto_item_append_text(ptr noundef %57, ptr noundef nonnull @.str.1098, ptr noundef %74)
  %78 = load i32, ptr %8, align 4
  %79 = add i32 %78, %62
  %80 = call zeroext i8 @tvb_get_uint8(ptr noundef %1, i32 noundef %79)
  %81 = icmp eq i8 %80, 0
  br i1 %81, label %89, label %82

82:                                               ; preds = %72
  %83 = call zeroext i8 @tvb_get_uint8(ptr noundef %1, i32 noundef %79)
  %84 = icmp ugt i8 %83, 31
  br i1 %84, label %85, label %88

85:                                               ; preds = %82
  %86 = call zeroext i8 @tvb_get_uint8(ptr noundef %1, i32 noundef %79)
  %87 = icmp sgt i8 %86, -1
  br i1 %87, label %89, label %88

88:                                               ; preds = %82, %85
  store i32 0, ptr %8, align 4
  br label %95

89:                                               ; preds = %72, %85
  %90 = call ptr @wmem_packet_scope()
  %91 = call ptr @tvb_get_stringz_enc(ptr noundef %90, ptr noundef %1, i32 noundef %79, ptr noundef nonnull %8, i32 noundef 0)
  %92 = load i32, ptr @hf_hdr_warning_text, align 4
  %93 = load i32, ptr %8, align 4
  %94 = call ptr @proto_tree_add_string(ptr noundef %59, i32 noundef %92, ptr noundef %1, i32 noundef %79, i32 noundef %93, ptr noundef %91)
  call void (ptr, ptr, ...) @proto_item_append_text(ptr noundef %57, ptr noundef nonnull @.str.1099, ptr noundef %91)
  br label %98

95:                                               ; preds = %15, %29, %88, %71, %48, %44
  %.097.ph = phi i32 [ %46, %44 ], [ %46, %48 ], [ %46, %71 ], [ %46, %88 ], [ %33, %29 ], [ %16, %15 ]
  %96 = load ptr, ptr %5, align 8
  %97 = call ptr @expert_add_info(ptr noundef %3, ptr noundef %96, ptr noundef nonnull @ei_wsp_header_invalid_value)
  br label %98

98:                                               ; preds = %20, %89, %95
  %.097116 = phi i32 [ %.097.ph, %95 ], [ %16, %20 ], [ %46, %89 ]
  call void @llvm.lifetime.end.p0(i64 4, ptr nonnull %8) #5
  call void @llvm.lifetime.end.p0(i64 4, ptr nonnull %7) #5
  call void @llvm.lifetime.end.p0(i64 4, ptr nonnull %6) #5
  call void @llvm.lifetime.end.p0(i64 8, ptr nonnull %5) #5
  ret i32 %.097116
}